(dp0
S'gnm_random_graph(10000,70000)'
p1
((lp2
(F0.0003
F0.023410000000000014
tp3
a(F0.02914285714285714
F0.05142857142857143
tp4
a(lp5
(F0.0005380885821369176
F0.03102776360288318
tp6
a(F0.3390164385311097
F0.5873597777837979
tp7
atp8
sS'gnm_random_graph(10000,100000)'
p9
((lp10
(F0.0003
F0.023410000000000014
tp11
a(F0.022799999999999997
F0.036
tp12
a(lp13
(F0.0006735479443932035
F0.03016941393398441
tp14
a(F0.3578025559633183
F0.5982735203692494
tp15
atp16
sS'gnm_random_graph(10000,90000)'
p17
((lp18
(F0.0003
F0.023100000000000013
tp19
a(F0.022666666666666665
F0.04
tp20
a(lp21
(F0.0006455587491245189
F0.030285025917099574
tp22
a(F0.3316638325987433
F0.5945202685045694
tp23
atp24
sS'gnm_random_graph(10000,30000)'
p25
(lp26
(F0.00038
F0.02182
tp27
a(F0.076
F0.12
tp28
asS'gnm_random_graph(10000,50000)'
p29
((lp30
(F0.0003
F0.02248000000000001
tp31
a(F0.045599999999999995
F0.072
tp32
a(lp33
(F0.0005207045653835403
F0.03029572135194398
tp34
a(F0.3789586922166186
F0.5851636615398516
tp35
atp36
sS'gnm_random_graph(10000,40000)'
p37
((lp38
(F0.0003
F0.02217000000000001
tp39
a(F0.056999999999999995
F0.09
tp40
a(lp41
(F0.0005956684770801584
F0.030295601882590378
tp42
a(F0.36243557006419563
F0.5514115792838128
tp43
atp44
sS'gnm_random_graph(10000,60000)'
p45
((lp46
(F0.0003
F0.02279000000000001
tp47
a(F0.034
F0.06
tp48
a(lp49
(F0.0005333686656933755
F0.030176648897438398
tp50
a(F0.3468990821343887
F0.5972995567899871
tp51
atp52
sS'gnm_random_graph(10000,80000)'
p53
((lp54
(F0.0003
F0.02279000000000001
tp55
a(F0.0255
F0.045
tp56
a(lp57
(F0.0005102447228063276
F0.030343395476974074
tp58
a(F0.3576857628195721
F0.5926501780720541
tp59
atp60
s.